
004.elf:     file format elf32-avr

Sections:
Idx Name          Size      VMA       LMA       File off  Algn
  0 .text         0000007e  00000000  00000000  00000054  2**1
                  CONTENTS, ALLOC, LOAD, READONLY, CODE
  1 .data         00000000  00800060  00800060  000000d2  2**0
                  CONTENTS, ALLOC, LOAD, DATA
  2 .comment      00000030  00000000  00000000  000000d2  2**0
                  CONTENTS, READONLY
  3 .note.gnu.avr.deviceinfo 0000003c  00000000  00000000  00000104  2**2
                  CONTENTS, READONLY
  4 .debug_aranges 00000020  00000000  00000000  00000140  2**0
                  CONTENTS, READONLY, DEBUGGING
  5 .debug_info   00000542  00000000  00000000  00000160  2**0
                  CONTENTS, READONLY, DEBUGGING
  6 .debug_abbrev 000004b3  00000000  00000000  000006a2  2**0
                  CONTENTS, READONLY, DEBUGGING
  7 .debug_line   00000220  00000000  00000000  00000b55  2**0
                  CONTENTS, READONLY, DEBUGGING
  8 .debug_frame  00000024  00000000  00000000  00000d78  2**2
                  CONTENTS, READONLY, DEBUGGING
  9 .debug_str    000002ae  00000000  00000000  00000d9c  2**0
                  CONTENTS, READONLY, DEBUGGING
 10 .debug_loc    0000008b  00000000  00000000  0000104a  2**0
                  CONTENTS, READONLY, DEBUGGING
 11 .debug_ranges 00000010  00000000  00000000  000010d5  2**0
                  CONTENTS, READONLY, DEBUGGING

Disassembly of section .text:

00000000 <__vectors>:
   0:	12 c0       	rjmp	.+36     	; 0x26 <__ctors_end>
   2:	19 c0       	rjmp	.+50     	; 0x36 <__bad_interrupt>
   4:	18 c0       	rjmp	.+48     	; 0x36 <__bad_interrupt>
   6:	17 c0       	rjmp	.+46     	; 0x36 <__bad_interrupt>
   8:	16 c0       	rjmp	.+44     	; 0x36 <__bad_interrupt>
   a:	15 c0       	rjmp	.+42     	; 0x36 <__bad_interrupt>
   c:	14 c0       	rjmp	.+40     	; 0x36 <__bad_interrupt>
   e:	13 c0       	rjmp	.+38     	; 0x36 <__bad_interrupt>
  10:	12 c0       	rjmp	.+36     	; 0x36 <__bad_interrupt>
  12:	11 c0       	rjmp	.+34     	; 0x36 <__bad_interrupt>
  14:	10 c0       	rjmp	.+32     	; 0x36 <__bad_interrupt>
  16:	0f c0       	rjmp	.+30     	; 0x36 <__bad_interrupt>
  18:	0e c0       	rjmp	.+28     	; 0x36 <__bad_interrupt>
  1a:	0d c0       	rjmp	.+26     	; 0x36 <__bad_interrupt>
  1c:	0c c0       	rjmp	.+24     	; 0x36 <__bad_interrupt>
  1e:	0b c0       	rjmp	.+22     	; 0x36 <__bad_interrupt>
  20:	0a c0       	rjmp	.+20     	; 0x36 <__bad_interrupt>
  22:	09 c0       	rjmp	.+18     	; 0x36 <__bad_interrupt>
  24:	08 c0       	rjmp	.+16     	; 0x36 <__bad_interrupt>

00000026 <__ctors_end>:
  26:	11 24       	eor	r1, r1
  28:	1f be       	out	0x3f, r1	; 63
  2a:	cf e5       	ldi	r28, 0x5F	; 95
  2c:	d4 e0       	ldi	r29, 0x04	; 4
  2e:	de bf       	out	0x3e, r29	; 62
  30:	cd bf       	out	0x3d, r28	; 61
  32:	02 d0       	rcall	.+4      	; 0x38 <main>
  34:	22 c0       	rjmp	.+68     	; 0x7a <_exit>

00000036 <__bad_interrupt>:
  36:	e4 cf       	rjmp	.-56     	; 0x0 <__vectors>

00000038 <main>:


int main(void)
{
	unsigned char tpr1=0,tpr2=0,counter=0;
	DDRC =(1<<DDRC2)|(1<<DDRC1)|(1<<DDRC0);
  38:	87 e0       	ldi	r24, 0x07	; 7
  3a:	84 bb       	out	0x14, r24	; 20
	DDRB &=~(1<<DDRB1);
  3c:	b9 98       	cbi	0x17, 1	; 23
#include <avr/io.h>


int main(void)
{
	unsigned char tpr1=0,tpr2=0,counter=0;
  3e:	90 e0       	ldi	r25, 0x00	; 0
  40:	20 e0       	ldi	r18, 0x00	; 0
		switch (counter) {
			case 1:
			PORTC=(1<<PORTC2);
			break;
			case 2:
			PORTC=(1<<PORTC1);
  42:	62 e0       	ldi	r22, 0x02	; 2
			break;
			case 3:
			PORTC=(1<<PORTC0);
  44:	51 e0       	ldi	r21, 0x01	; 1
		tpr2=tpr1;
		tpr1=(PINB&(1<<PINB1))>>1;
		if(tpr2==0&&tpr1==1)counter++;
		switch (counter) {
			case 1:
			PORTC=(1<<PORTC2);
  46:	44 e0       	ldi	r20, 0x04	; 4
  48:	01 c0       	rjmp	.+2      	; 0x4c <__SREG__+0xd>
  4a:	28 2f       	mov	r18, r24
	unsigned char tpr1=0,tpr2=0,counter=0;
	DDRC =(1<<DDRC2)|(1<<DDRC1)|(1<<DDRC0);
	DDRB &=~(1<<DDRB1);
	while(1){
		tpr2=tpr1;
		tpr1=(PINB&(1<<PINB1))>>1;
  4c:	86 b3       	in	r24, 0x16	; 22
  4e:	86 95       	lsr	r24
  50:	81 70       	andi	r24, 0x01	; 1
		if(tpr2==0&&tpr1==1)counter++;
  52:	21 11       	cpse	r18, r1
  54:	03 c0       	rjmp	.+6      	; 0x5c <__SREG__+0x1d>
  56:	81 30       	cpi	r24, 0x01	; 1
  58:	09 f4       	brne	.+2      	; 0x5c <__SREG__+0x1d>
  5a:	9f 5f       	subi	r25, 0xFF	; 255
		switch (counter) {
  5c:	92 30       	cpi	r25, 0x02	; 2
  5e:	31 f0       	breq	.+12     	; 0x6c <__SREG__+0x2d>
  60:	93 30       	cpi	r25, 0x03	; 3
  62:	31 f0       	breq	.+12     	; 0x70 <__SREG__+0x31>
  64:	91 30       	cpi	r25, 0x01	; 1
  66:	31 f4       	brne	.+12     	; 0x74 <__SREG__+0x35>
			case 1:
			PORTC=(1<<PORTC2);
  68:	45 bb       	out	0x15, r20	; 21
			break;
  6a:	ef cf       	rjmp	.-34     	; 0x4a <__SREG__+0xb>
			case 2:
			PORTC=(1<<PORTC1);
  6c:	65 bb       	out	0x15, r22	; 21
			break;
  6e:	ed cf       	rjmp	.-38     	; 0x4a <__SREG__+0xb>
			case 3:
			PORTC=(1<<PORTC0);
  70:	55 bb       	out	0x15, r21	; 21
			break;
  72:	eb cf       	rjmp	.-42     	; 0x4a <__SREG__+0xb>
			default:
			PORTC=0;counter=0;
  74:	15 ba       	out	0x15, r1	; 21
  76:	90 e0       	ldi	r25, 0x00	; 0
			break;
  78:	e8 cf       	rjmp	.-48     	; 0x4a <__SREG__+0xb>

0000007a <_exit>:
  7a:	f8 94       	cli

0000007c <__stop_program>:
  7c:	ff cf       	rjmp	.-2      	; 0x7c <__stop_program>
